   1              		.arch armv6-m
   2              		.eabi_attribute 20, 1
   3              		.eabi_attribute 21, 1
   4              		.eabi_attribute 23, 3
   5              		.eabi_attribute 24, 1
   6              		.eabi_attribute 25, 1
   7              		.eabi_attribute 26, 1
   8              		.eabi_attribute 30, 6
   9              		.eabi_attribute 34, 0
  10              		.eabi_attribute 18, 4
  11              		.file	"DIP.c"
  12              		.text
  13              	.Ltext0:
  14              		.cfi_sections	.debug_frame
  15              		.data
  16              		.align	2
  19              	witch1_black_bits:
  20 0000 F8       		.byte	-8
  21 0001 01       		.byte	1
  22 0002 00       		.byte	0
  23 0003 20       		.byte	32
  24 0004 01       		.byte	1
  25 0005 00       		.byte	0
  26 0006 40       		.byte	64
  27 0007 03       		.byte	3
  28 0008 00       		.byte	0
  29 0009 40       		.byte	64
  30 000a 07       		.byte	7
  31 000b 00       		.byte	0
  32 000c 20       		.byte	32
  33 000d 07       		.byte	7
  34 000e 00       		.byte	0
  35 000f 20       		.byte	32
  36 0010 66       		.byte	102
  37 0011 00       		.byte	0
  38 0012 F8       		.byte	-8
  39 0013 3F       		.byte	63
  40 0014 00       		.byte	0
  41 0015 40       		.byte	64
  42 0016 04       		.byte	4
  43 0017 00       		.byte	0
  44 0018 40       		.byte	64
  45 0019 04       		.byte	4
  46 001a 00       		.byte	0
  47 001b 40       		.byte	64
  48 001c 04       		.byte	4
  49 001d 00       		.byte	0
  50 001e 80       		.byte	-128
  51 001f 03       		.byte	3
  52 0020 00       		.byte	0
  53 0021 40       		.byte	64
  54 0022 06       		.byte	6
  55 0023 00       		.byte	0
  56 0024 40       		.byte	64
  57 0025 06       		.byte	6
  58 0026 00       		.byte	0
  59 0027 20       		.byte	32
  60 0028 06       		.byte	6
  61 0029 00       		.byte	0
  62 002a 20       		.byte	32
  63 002b 0E       		.byte	14
  64 002c 00       		.byte	0
  65 002d 10       		.byte	16
  66 002e 0E       		.byte	14
  67 002f 00       		.byte	0
  68 0030 10       		.byte	16
  69 0031 0C       		.byte	12
  70 0032 00       		.byte	0
  71 0033 F8       		.byte	-8
  72 0034 1F       		.byte	31
  73 0035 00       		.byte	0
  74 0036 0000     		.align	2
  77              	witch1_gray_bits:
  78 0038 00       		.byte	0
  79 0039 00       		.byte	0
  80 003a 00       		.byte	0
  81 003b C0       		.byte	-64
  82 003c 00       		.byte	0
  83 003d 00       		.byte	0
  84 003e 80       		.byte	-128
  85 003f 00       		.byte	0
  86 0040 00       		.byte	0
  87 0041 80       		.byte	-128
  88 0042 00       		.byte	0
  89 0043 00       		.byte	0
  90 0044 C0       		.byte	-64
  91 0045 00       		.byte	0
  92 0046 00       		.byte	0
  93 0047 C0       		.byte	-64
  94 0048 01       		.byte	1
  95 0049 00       		.byte	0
  96 004a 00       		.byte	0
  97 004b 00       		.byte	0
  98 004c 00       		.byte	0
  99 004d 00       		.byte	0
 100 004e 00       		.byte	0
 101 004f 00       		.byte	0
 102 0050 00       		.byte	0
 103 0051 00       		.byte	0
 104 0052 00       		.byte	0
 105 0053 00       		.byte	0
 106 0054 00       		.byte	0
 107 0055 00       		.byte	0
 108 0056 00       		.byte	0
 109 0057 00       		.byte	0
 110 0058 00       		.byte	0
 111 0059 80       		.byte	-128
 112 005a 01       		.byte	1
 113 005b 00       		.byte	0
 114 005c 80       		.byte	-128
 115 005d 01       		.byte	1
 116 005e 00       		.byte	0
 117 005f C0       		.byte	-64
 118 0060 01       		.byte	1
 119 0061 00       		.byte	0
 120 0062 C0       		.byte	-64
 121 0063 01       		.byte	1
 122 0064 00       		.byte	0
 123 0065 E0       		.byte	-32
 124 0066 01       		.byte	1
 125 0067 00       		.byte	0
 126 0068 E0       		.byte	-32
 127 0069 03       		.byte	3
 128 006a 00       		.byte	0
 129 006b 00       		.byte	0
 130 006c 00       		.byte	0
 131 006d 00       		.byte	0
 132 006e 0000     		.align	2
 135              	witch1_light_bits:
 136 0070 00       		.byte	0
 137 0071 00       		.byte	0
 138 0072 00       		.byte	0
 139 0073 00       		.byte	0
 140 0074 00       		.byte	0
 141 0075 00       		.byte	0
 142 0076 00       		.byte	0
 143 0077 00       		.byte	0
 144 0078 00       		.byte	0
 145 0079 00       		.byte	0
 146 007a 00       		.byte	0
 147 007b 00       		.byte	0
 148 007c 00       		.byte	0
 149 007d 00       		.byte	0
 150 007e 00       		.byte	0
 151 007f 00       		.byte	0
 152 0080 00       		.byte	0
 153 0081 00       		.byte	0
 154 0082 00       		.byte	0
 155 0083 00       		.byte	0
 156 0084 00       		.byte	0
 157 0085 80       		.byte	-128
 158 0086 03       		.byte	3
 159 0087 00       		.byte	0
 160 0088 80       		.byte	-128
 161 0089 03       		.byte	3
 162 008a 00       		.byte	0
 163 008b 80       		.byte	-128
 164 008c 03       		.byte	3
 165 008d 00       		.byte	0
 166 008e 00       		.byte	0
 167 008f 00       		.byte	0
 168 0090 00       		.byte	0
 169 0091 00       		.byte	0
 170 0092 00       		.byte	0
 171 0093 00       		.byte	0
 172 0094 00       		.byte	0
 173 0095 00       		.byte	0
 174 0096 00       		.byte	0
 175 0097 00       		.byte	0
 176 0098 00       		.byte	0
 177 0099 00       		.byte	0
 178 009a 00       		.byte	0
 179 009b 00       		.byte	0
 180 009c 00       		.byte	0
 181 009d 00       		.byte	0
 182 009e 00       		.byte	0
 183 009f 00       		.byte	0
 184 00a0 00       		.byte	0
 185 00a1 00       		.byte	0
 186 00a2 00       		.byte	0
 187 00a3 00       		.byte	0
 188 00a4 00       		.byte	0
 189 00a5 00       		.byte	0
 190 00a6 0000     		.align	2
 193              	witch2_black_bits:
 194 00a8 00       		.byte	0
 195 00a9 00       		.byte	0
 196 00aa 00       		.byte	0
 197 00ab F8       		.byte	-8
 198 00ac 01       		.byte	1
 199 00ad 00       		.byte	0
 200 00ae 20       		.byte	32
 201 00af 01       		.byte	1
 202 00b0 00       		.byte	0
 203 00b1 40       		.byte	64
 204 00b2 03       		.byte	3
 205 00b3 00       		.byte	0
 206 00b4 40       		.byte	64
 207 00b5 07       		.byte	7
 208 00b6 00       		.byte	0
 209 00b7 20       		.byte	32
 210 00b8 07       		.byte	7
 211 00b9 00       		.byte	0
 212 00ba 20       		.byte	32
 213 00bb 66       		.byte	102
 214 00bc 00       		.byte	0
 215 00bd F8       		.byte	-8
 216 00be 3F       		.byte	63
 217 00bf 00       		.byte	0
 218 00c0 40       		.byte	64
 219 00c1 04       		.byte	4
 220 00c2 00       		.byte	0
 221 00c3 40       		.byte	64
 222 00c4 04       		.byte	4
 223 00c5 00       		.byte	0
 224 00c6 40       		.byte	64
 225 00c7 04       		.byte	4
 226 00c8 00       		.byte	0
 227 00c9 80       		.byte	-128
 228 00ca 03       		.byte	3
 229 00cb 00       		.byte	0
 230 00cc 60       		.byte	96
 231 00cd 06       		.byte	6
 232 00ce 00       		.byte	0
 233 00cf 20       		.byte	32
 234 00d0 06       		.byte	6
 235 00d1 00       		.byte	0
 236 00d2 10       		.byte	16
 237 00d3 0E       		.byte	14
 238 00d4 00       		.byte	0
 239 00d5 08       		.byte	8
 240 00d6 1C       		.byte	28
 241 00d7 00       		.byte	0
 242 00d8 08       		.byte	8
 243 00d9 1C       		.byte	28
 244 00da 00       		.byte	0
 245 00db FC       		.byte	-4
 246 00dc 3F       		.byte	63
 247 00dd 00       		.byte	0
 248 00de 0000     		.align	2
 251              	witch2_gray_bits:
 252 00e0 00       		.byte	0
 253 00e1 00       		.byte	0
 254 00e2 00       		.byte	0
 255 00e3 00       		.byte	0
 256 00e4 00       		.byte	0
 257 00e5 00       		.byte	0
 258 00e6 C0       		.byte	-64
 259 00e7 00       		.byte	0
 260 00e8 00       		.byte	0
 261 00e9 80       		.byte	-128
 262 00ea 00       		.byte	0
 263 00eb 00       		.byte	0
 264 00ec 80       		.byte	-128
 265 00ed 00       		.byte	0
 266 00ee 00       		.byte	0
 267 00ef C0       		.byte	-64
 268 00f0 00       		.byte	0
 269 00f1 00       		.byte	0
 270 00f2 C0       		.byte	-64
 271 00f3 01       		.byte	1
 272 00f4 00       		.byte	0
 273 00f5 00       		.byte	0
 274 00f6 00       		.byte	0
 275 00f7 00       		.byte	0
 276 00f8 00       		.byte	0
 277 00f9 00       		.byte	0
 278 00fa 00       		.byte	0
 279 00fb 00       		.byte	0
 280 00fc 00       		.byte	0
 281 00fd 00       		.byte	0
 282 00fe 00       		.byte	0
 283 00ff 00       		.byte	0
 284 0100 00       		.byte	0
 285 0101 00       		.byte	0
 286 0102 00       		.byte	0
 287 0103 00       		.byte	0
 288 0104 80       		.byte	-128
 289 0105 01       		.byte	1
 290 0106 00       		.byte	0
 291 0107 C0       		.byte	-64
 292 0108 01       		.byte	1
 293 0109 00       		.byte	0
 294 010a E0       		.byte	-32
 295 010b 01       		.byte	1
 296 010c 00       		.byte	0
 297 010d F0       		.byte	-16
 298 010e 03       		.byte	3
 299 010f 00       		.byte	0
 300 0110 F0       		.byte	-16
 301 0111 03       		.byte	3
 302 0112 00       		.byte	0
 303 0113 00       		.byte	0
 304 0114 00       		.byte	0
 305 0115 00       		.byte	0
 306 0116 0000     		.align	2
 309              	witch2_light_bits:
 310 0118 00       		.byte	0
 311 0119 00       		.byte	0
 312 011a 00       		.byte	0
 313 011b 00       		.byte	0
 314 011c 00       		.byte	0
 315 011d 00       		.byte	0
 316 011e 00       		.byte	0
 317 011f 00       		.byte	0
 318 0120 00       		.byte	0
 319 0121 00       		.byte	0
 320 0122 00       		.byte	0
 321 0123 00       		.byte	0
 322 0124 00       		.byte	0
 323 0125 00       		.byte	0
 324 0126 00       		.byte	0
 325 0127 00       		.byte	0
 326 0128 00       		.byte	0
 327 0129 00       		.byte	0
 328 012a 00       		.byte	0
 329 012b 00       		.byte	0
 330 012c 00       		.byte	0
 331 012d 00       		.byte	0
 332 012e 00       		.byte	0
 333 012f 00       		.byte	0
 334 0130 80       		.byte	-128
 335 0131 03       		.byte	3
 336 0132 00       		.byte	0
 337 0133 80       		.byte	-128
 338 0134 03       		.byte	3
 339 0135 00       		.byte	0
 340 0136 80       		.byte	-128
 341 0137 03       		.byte	3
 342 0138 00       		.byte	0
 343 0139 00       		.byte	0
 344 013a 00       		.byte	0
 345 013b 00       		.byte	0
 346 013c 00       		.byte	0
 347 013d 00       		.byte	0
 348 013e 00       		.byte	0
 349 013f 00       		.byte	0
 350 0140 00       		.byte	0
 351 0141 00       		.byte	0
 352 0142 00       		.byte	0
 353 0143 00       		.byte	0
 354 0144 00       		.byte	0
 355 0145 00       		.byte	0
 356 0146 00       		.byte	0
 357 0147 00       		.byte	0
 358 0148 00       		.byte	0
 359 0149 00       		.byte	0
 360 014a 00       		.byte	0
 361 014b 00       		.byte	0
 362 014c 00       		.byte	0
 363 014d 00       		.byte	0
 364 014e 0000     		.align	2
 367              	witch3_black_bits:
 368 0150 00       		.byte	0
 369 0151 00       		.byte	0
 370 0152 00       		.byte	0
 371 0153 F8       		.byte	-8
 372 0154 01       		.byte	1
 373 0155 00       		.byte	0
 374 0156 20       		.byte	32
 375 0157 01       		.byte	1
 376 0158 00       		.byte	0
 377 0159 40       		.byte	64
 378 015a 03       		.byte	3
 379 015b 00       		.byte	0
 380 015c 40       		.byte	64
 381 015d 07       		.byte	7
 382 015e 00       		.byte	0
 383 015f 20       		.byte	32
 384 0160 07       		.byte	7
 385 0161 00       		.byte	0
 386 0162 20       		.byte	32
 387 0163 66       		.byte	102
 388 0164 00       		.byte	0
 389 0165 F8       		.byte	-8
 390 0166 3F       		.byte	63
 391 0167 00       		.byte	0
 392 0168 40       		.byte	64
 393 0169 04       		.byte	4
 394 016a 00       		.byte	0
 395 016b 40       		.byte	64
 396 016c 04       		.byte	4
 397 016d 00       		.byte	0
 398 016e 40       		.byte	64
 399 016f 04       		.byte	4
 400 0170 00       		.byte	0
 401 0171 80       		.byte	-128
 402 0172 03       		.byte	3
 403 0173 00       		.byte	0
 404 0174 60       		.byte	96
 405 0175 06       		.byte	6
 406 0176 00       		.byte	0
 407 0177 10       		.byte	16
 408 0178 0E       		.byte	14
 409 0179 00       		.byte	0
 410 017a 08       		.byte	8
 411 017b 1C       		.byte	28
 412 017c 00       		.byte	0
 413 017d 08       		.byte	8
 414 017e 38       		.byte	56
 415 017f 00       		.byte	0
 416 0180 04       		.byte	4
 417 0181 38       		.byte	56
 418 0182 00       		.byte	0
 419 0183 FE       		.byte	-2
 420 0184 7F       		.byte	127
 421 0185 00       		.byte	0
 422 0186 0000     		.align	2
 425              	witch3_gray_bits:
 426 0188 00       		.byte	0
 427 0189 00       		.byte	0
 428 018a 00       		.byte	0
 429 018b 00       		.byte	0
 430 018c 00       		.byte	0
 431 018d 00       		.byte	0
 432 018e C0       		.byte	-64
 433 018f 00       		.byte	0
 434 0190 00       		.byte	0
 435 0191 80       		.byte	-128
 436 0192 00       		.byte	0
 437 0193 00       		.byte	0
 438 0194 80       		.byte	-128
 439 0195 00       		.byte	0
 440 0196 00       		.byte	0
 441 0197 C0       		.byte	-64
 442 0198 00       		.byte	0
 443 0199 00       		.byte	0
 444 019a C0       		.byte	-64
 445 019b 01       		.byte	1
 446 019c 00       		.byte	0
 447 019d 00       		.byte	0
 448 019e 00       		.byte	0
 449 019f 00       		.byte	0
 450 01a0 00       		.byte	0
 451 01a1 00       		.byte	0
 452 01a2 00       		.byte	0
 453 01a3 00       		.byte	0
 454 01a4 00       		.byte	0
 455 01a5 00       		.byte	0
 456 01a6 00       		.byte	0
 457 01a7 00       		.byte	0
 458 01a8 00       		.byte	0
 459 01a9 00       		.byte	0
 460 01aa 00       		.byte	0
 461 01ab 00       		.byte	0
 462 01ac 80       		.byte	-128
 463 01ad 01       		.byte	1
 464 01ae 00       		.byte	0
 465 01af E0       		.byte	-32
 466 01b0 01       		.byte	1
 467 01b1 00       		.byte	0
 468 01b2 F0       		.byte	-16
 469 01b3 03       		.byte	3
 470 01b4 00       		.byte	0
 471 01b5 F0       		.byte	-16
 472 01b6 07       		.byte	7
 473 01b7 00       		.byte	0
 474 01b8 F8       		.byte	-8
 475 01b9 07       		.byte	7
 476 01ba 00       		.byte	0
 477 01bb 00       		.byte	0
 478 01bc 00       		.byte	0
 479 01bd 00       		.byte	0
 480 01be 0000     		.align	2
 483              	witch3_light_bits:
 484 01c0 00       		.byte	0
 485 01c1 00       		.byte	0
 486 01c2 00       		.byte	0
 487 01c3 00       		.byte	0
 488 01c4 00       		.byte	0
 489 01c5 00       		.byte	0
 490 01c6 00       		.byte	0
 491 01c7 00       		.byte	0
 492 01c8 00       		.byte	0
 493 01c9 00       		.byte	0
 494 01ca 00       		.byte	0
 495 01cb 00       		.byte	0
 496 01cc 00       		.byte	0
 497 01cd 00       		.byte	0
 498 01ce 00       		.byte	0
 499 01cf 00       		.byte	0
 500 01d0 00       		.byte	0
 501 01d1 00       		.byte	0
 502 01d2 00       		.byte	0
 503 01d3 00       		.byte	0
 504 01d4 00       		.byte	0
 505 01d5 00       		.byte	0
 506 01d6 00       		.byte	0
 507 01d7 00       		.byte	0
 508 01d8 80       		.byte	-128
 509 01d9 03       		.byte	3
 510 01da 00       		.byte	0
 511 01db 80       		.byte	-128
 512 01dc 03       		.byte	3
 513 01dd 00       		.byte	0
 514 01de 80       		.byte	-128
 515 01df 03       		.byte	3
 516 01e0 00       		.byte	0
 517 01e1 00       		.byte	0
 518 01e2 00       		.byte	0
 519 01e3 00       		.byte	0
 520 01e4 00       		.byte	0
 521 01e5 00       		.byte	0
 522 01e6 00       		.byte	0
 523 01e7 00       		.byte	0
 524 01e8 00       		.byte	0
 525 01e9 00       		.byte	0
 526 01ea 00       		.byte	0
 527 01eb 00       		.byte	0
 528 01ec 00       		.byte	0
 529 01ed 00       		.byte	0
 530 01ee 00       		.byte	0
 531 01ef 00       		.byte	0
 532 01f0 00       		.byte	0
 533 01f1 00       		.byte	0
 534 01f2 00       		.byte	0
 535 01f3 00       		.byte	0
 536 01f4 00       		.byte	0
 537 01f5 00       		.byte	0
 538              		.comm	DIP1Black,4,4
 539              		.comm	DIP1Gray,4,4
 540              		.comm	DIP1Light,4,4
 541              		.comm	DIP2Black,4,4
 542              		.comm	DIP2Gray,4,4
 543              		.comm	DIP2Light,4,4
 544              		.comm	DIP3Black,4,4
 545              		.comm	DIP3Gray,4,4
 546              		.comm	DIP3Light,4,4
 547              		.comm	tempDIPBlack,12,4
 548              		.comm	tempDIPLight,12,4
 549              		.comm	tempDIPGray,12,4
 550              		.comm	tempDIP2Black,12,4
 551              		.comm	tempDIP2Light,12,4
 552              		.comm	tempDIP2Gray,12,4
 553              		.comm	tempDIP3Black,12,4
 554              		.comm	tempDIP3Light,12,4
 555              		.comm	tempDIP3Gray,12,4
 556              		.comm	DIPObj,36,4
 557              		.comm	DIP1Image,12,4
 558              		.comm	DIP2Image,12,4
 559              		.comm	DIP3Image,12,4
 560              		.comm	DIP4Image,12,4
 561              		.comm	DIPImages,48,4
 562              		.text
 563              		.align	1
 564              		.syntax unified
 565              		.code	16
 566              		.thumb_func
 567              		.fpu softvfp
 569              	initSprites:
 570              	.LFB0:
 571              		.file 1 "C:/mop/c/Moplaborationer/DIPs-Witch/C/DIP.c"
   1:C:/mop/c/Moplaborationer/DIPs-Witch/C\DIP.c **** #include "sprite.h"
   2:C:/mop/c/Moplaborationer/DIPs-Witch/C\DIP.c **** #include "gameobject.h"
   3:C:/mop/c/Moplaborationer/DIPs-Witch/C\DIP.c **** 
   4:C:/mop/c/Moplaborationer/DIPs-Witch/C\DIP.c **** #include "witch1_black.xbm"
   5:C:/mop/c/Moplaborationer/DIPs-Witch/C\DIP.c **** #include "witch1_gray.xbm"
   6:C:/mop/c/Moplaborationer/DIPs-Witch/C\DIP.c **** #include "witch1_light.xbm"
   7:C:/mop/c/Moplaborationer/DIPs-Witch/C\DIP.c **** #include "witch2_black.xbm"
   8:C:/mop/c/Moplaborationer/DIPs-Witch/C\DIP.c **** #include "witch2_gray.xbm"
   9:C:/mop/c/Moplaborationer/DIPs-Witch/C\DIP.c **** #include "witch2_light.xbm"
  10:C:/mop/c/Moplaborationer/DIPs-Witch/C\DIP.c **** #include "witch3_black.xbm"
  11:C:/mop/c/Moplaborationer/DIPs-Witch/C\DIP.c **** #include "witch3_gray.xbm"
  12:C:/mop/c/Moplaborationer/DIPs-Witch/C\DIP.c **** #include "witch3_light.xbm"
  13:C:/mop/c/Moplaborationer/DIPs-Witch/C\DIP.c **** 
  14:C:/mop/c/Moplaborationer/DIPs-Witch/C\DIP.c **** sprite *DIP1Black;
  15:C:/mop/c/Moplaborationer/DIPs-Witch/C\DIP.c **** sprite *DIP1Gray;
  16:C:/mop/c/Moplaborationer/DIPs-Witch/C\DIP.c **** sprite *DIP1Light;
  17:C:/mop/c/Moplaborationer/DIPs-Witch/C\DIP.c **** sprite *DIP2Black;
  18:C:/mop/c/Moplaborationer/DIPs-Witch/C\DIP.c **** sprite *DIP2Gray;
  19:C:/mop/c/Moplaborationer/DIPs-Witch/C\DIP.c **** sprite *DIP2Light;
  20:C:/mop/c/Moplaborationer/DIPs-Witch/C\DIP.c **** sprite *DIP3Black;
  21:C:/mop/c/Moplaborationer/DIPs-Witch/C\DIP.c **** sprite *DIP3Gray;
  22:C:/mop/c/Moplaborationer/DIPs-Witch/C\DIP.c **** sprite *DIP3Light;
  23:C:/mop/c/Moplaborationer/DIPs-Witch/C\DIP.c **** 
  24:C:/mop/c/Moplaborationer/DIPs-Witch/C\DIP.c **** sprite tempDIPBlack;
  25:C:/mop/c/Moplaborationer/DIPs-Witch/C\DIP.c **** sprite tempDIPLight;
  26:C:/mop/c/Moplaborationer/DIPs-Witch/C\DIP.c **** sprite tempDIPGray;
  27:C:/mop/c/Moplaborationer/DIPs-Witch/C\DIP.c **** sprite tempDIP2Black;
  28:C:/mop/c/Moplaborationer/DIPs-Witch/C\DIP.c **** sprite tempDIP2Light;
  29:C:/mop/c/Moplaborationer/DIPs-Witch/C\DIP.c **** sprite tempDIP2Gray;
  30:C:/mop/c/Moplaborationer/DIPs-Witch/C\DIP.c **** sprite tempDIP3Black;
  31:C:/mop/c/Moplaborationer/DIPs-Witch/C\DIP.c **** sprite tempDIP3Light;
  32:C:/mop/c/Moplaborationer/DIPs-Witch/C\DIP.c **** sprite tempDIP3Gray;
  33:C:/mop/c/Moplaborationer/DIPs-Witch/C\DIP.c **** 
  34:C:/mop/c/Moplaborationer/DIPs-Witch/C\DIP.c **** 
  35:C:/mop/c/Moplaborationer/DIPs-Witch/C\DIP.c **** GameObject DIPObj;
  36:C:/mop/c/Moplaborationer/DIPs-Witch/C\DIP.c **** Image DIP1Image;
  37:C:/mop/c/Moplaborationer/DIPs-Witch/C\DIP.c **** Image DIP2Image;
  38:C:/mop/c/Moplaborationer/DIPs-Witch/C\DIP.c **** Image DIP3Image;
  39:C:/mop/c/Moplaborationer/DIPs-Witch/C\DIP.c **** Image DIP4Image;
  40:C:/mop/c/Moplaborationer/DIPs-Witch/C\DIP.c **** Image DIPImages[4];
  41:C:/mop/c/Moplaborationer/DIPs-Witch/C\DIP.c **** static void initSprites( void ) {	
 572              		.loc 1 41 0
 573              		.cfi_startproc
 574              		@ args = 0, pretend = 0, frame = 40
 575              		@ frame_needed = 1, uses_anonymous_args = 0
 576 0000 80B5     		push	{r7, lr}
 577              		.cfi_def_cfa_offset 8
 578              		.cfi_offset 7, -8
 579              		.cfi_offset 14, -4
 580 0002 8AB0     		sub	sp, sp, #40
 581              		.cfi_def_cfa_offset 48
 582 0004 00AF     		add	r7, sp, #0
 583              		.cfi_def_cfa_register 7
  42:C:/mop/c/Moplaborationer/DIPs-Witch/C\DIP.c **** 	
  43:C:/mop/c/Moplaborationer/DIPs-Witch/C\DIP.c **** 	sprite *pointer11 = &tempDIPLight;
 584              		.loc 1 43 0
 585 0006 334B     		ldr	r3, .L2
 586 0008 7B62     		str	r3, [r7, #36]
  44:C:/mop/c/Moplaborationer/DIPs-Witch/C\DIP.c **** 	load_sprite(pointer11, witch1_light_bits, witch1_black_width, witch1_black_height);
 587              		.loc 1 44 0
 588 000a 3349     		ldr	r1, .L2+4
 589 000c 786A     		ldr	r0, [r7, #36]
 590 000e 1223     		movs	r3, #18
 591 0010 1222     		movs	r2, #18
 592 0012 FFF7FEFF 		bl	load_sprite
  45:C:/mop/c/Moplaborationer/DIPs-Witch/C\DIP.c **** 	DIP1Light = pointer11;
 593              		.loc 1 45 0
 594 0016 314B     		ldr	r3, .L2+8
 595 0018 7A6A     		ldr	r2, [r7, #36]
 596 001a 1A60     		str	r2, [r3]
  46:C:/mop/c/Moplaborationer/DIPs-Witch/C\DIP.c **** 	sprite *pointer12 = &tempDIPGray;
 597              		.loc 1 46 0
 598 001c 304B     		ldr	r3, .L2+12
 599 001e 3B62     		str	r3, [r7, #32]
  47:C:/mop/c/Moplaborationer/DIPs-Witch/C\DIP.c **** 	load_sprite(pointer12, witch1_gray_bits, witch1_black_width, witch1_black_height);
 600              		.loc 1 47 0
 601 0020 3049     		ldr	r1, .L2+16
 602 0022 386A     		ldr	r0, [r7, #32]
 603 0024 1223     		movs	r3, #18
 604 0026 1222     		movs	r2, #18
 605 0028 FFF7FEFF 		bl	load_sprite
  48:C:/mop/c/Moplaborationer/DIPs-Witch/C\DIP.c **** 	DIP1Gray = pointer12;
 606              		.loc 1 48 0
 607 002c 2E4B     		ldr	r3, .L2+20
 608 002e 3A6A     		ldr	r2, [r7, #32]
 609 0030 1A60     		str	r2, [r3]
  49:C:/mop/c/Moplaborationer/DIPs-Witch/C\DIP.c **** 	sprite *pointer13 = &tempDIPBlack;
 610              		.loc 1 49 0
 611 0032 2E4B     		ldr	r3, .L2+24
 612 0034 FB61     		str	r3, [r7, #28]
  50:C:/mop/c/Moplaborationer/DIPs-Witch/C\DIP.c **** 	load_sprite(pointer13, witch1_black_bits, witch1_black_width, witch1_black_height);
 613              		.loc 1 50 0
 614 0036 2E49     		ldr	r1, .L2+28
 615 0038 F869     		ldr	r0, [r7, #28]
 616 003a 1223     		movs	r3, #18
 617 003c 1222     		movs	r2, #18
 618 003e FFF7FEFF 		bl	load_sprite
  51:C:/mop/c/Moplaborationer/DIPs-Witch/C\DIP.c **** 	DIP1Black = pointer13;	
 619              		.loc 1 51 0
 620 0042 2C4B     		ldr	r3, .L2+32
 621 0044 FA69     		ldr	r2, [r7, #28]
 622 0046 1A60     		str	r2, [r3]
  52:C:/mop/c/Moplaborationer/DIPs-Witch/C\DIP.c **** 	
  53:C:/mop/c/Moplaborationer/DIPs-Witch/C\DIP.c **** 	sprite *pointer14 = &tempDIP2Light;
 623              		.loc 1 53 0
 624 0048 2B4B     		ldr	r3, .L2+36
 625 004a BB61     		str	r3, [r7, #24]
  54:C:/mop/c/Moplaborationer/DIPs-Witch/C\DIP.c **** 	load_sprite(pointer14, witch2_light_bits, witch2_black_width, witch2_black_height);
 626              		.loc 1 54 0
 627 004c 2B49     		ldr	r1, .L2+40
 628 004e B869     		ldr	r0, [r7, #24]
 629 0050 1223     		movs	r3, #18
 630 0052 1222     		movs	r2, #18
 631 0054 FFF7FEFF 		bl	load_sprite
  55:C:/mop/c/Moplaborationer/DIPs-Witch/C\DIP.c **** 	DIP2Light = pointer14;
 632              		.loc 1 55 0
 633 0058 294B     		ldr	r3, .L2+44
 634 005a BA69     		ldr	r2, [r7, #24]
 635 005c 1A60     		str	r2, [r3]
  56:C:/mop/c/Moplaborationer/DIPs-Witch/C\DIP.c **** 	sprite *pointer15 = &tempDIP2Gray;
 636              		.loc 1 56 0
 637 005e 294B     		ldr	r3, .L2+48
 638 0060 7B61     		str	r3, [r7, #20]
  57:C:/mop/c/Moplaborationer/DIPs-Witch/C\DIP.c **** 	load_sprite(pointer15, witch2_gray_bits, witch2_black_width, witch2_black_height);
 639              		.loc 1 57 0
 640 0062 2949     		ldr	r1, .L2+52
 641 0064 7869     		ldr	r0, [r7, #20]
 642 0066 1223     		movs	r3, #18
 643 0068 1222     		movs	r2, #18
 644 006a FFF7FEFF 		bl	load_sprite
  58:C:/mop/c/Moplaborationer/DIPs-Witch/C\DIP.c **** 	DIP2Gray = pointer15;
 645              		.loc 1 58 0
 646 006e 274B     		ldr	r3, .L2+56
 647 0070 7A69     		ldr	r2, [r7, #20]
 648 0072 1A60     		str	r2, [r3]
  59:C:/mop/c/Moplaborationer/DIPs-Witch/C\DIP.c **** 	sprite *pointer16 = &tempDIP2Black;
 649              		.loc 1 59 0
 650 0074 264B     		ldr	r3, .L2+60
 651 0076 3B61     		str	r3, [r7, #16]
  60:C:/mop/c/Moplaborationer/DIPs-Witch/C\DIP.c **** 	load_sprite(pointer16, witch2_black_bits, witch2_black_width, witch2_black_height);
 652              		.loc 1 60 0
 653 0078 2649     		ldr	r1, .L2+64
 654 007a 3869     		ldr	r0, [r7, #16]
 655 007c 1223     		movs	r3, #18
 656 007e 1222     		movs	r2, #18
 657 0080 FFF7FEFF 		bl	load_sprite
  61:C:/mop/c/Moplaborationer/DIPs-Witch/C\DIP.c **** 	DIP2Black = pointer16;
 658              		.loc 1 61 0
 659 0084 244B     		ldr	r3, .L2+68
 660 0086 3A69     		ldr	r2, [r7, #16]
 661 0088 1A60     		str	r2, [r3]
  62:C:/mop/c/Moplaborationer/DIPs-Witch/C\DIP.c **** 	
  63:C:/mop/c/Moplaborationer/DIPs-Witch/C\DIP.c **** 	
  64:C:/mop/c/Moplaborationer/DIPs-Witch/C\DIP.c **** 	sprite *finalPointer = &tempDIP3Light;
 662              		.loc 1 64 0
 663 008a 244B     		ldr	r3, .L2+72
 664 008c FB60     		str	r3, [r7, #12]
  65:C:/mop/c/Moplaborationer/DIPs-Witch/C\DIP.c **** 	load_sprite(finalPointer, witch3_light_bits, witch3_black_width, witch3_black_height);
 665              		.loc 1 65 0
 666 008e 2449     		ldr	r1, .L2+76
 667 0090 F868     		ldr	r0, [r7, #12]
 668 0092 1223     		movs	r3, #18
 669 0094 1222     		movs	r2, #18
 670 0096 FFF7FEFF 		bl	load_sprite
  66:C:/mop/c/Moplaborationer/DIPs-Witch/C\DIP.c **** 	DIP3Light = finalPointer;
 671              		.loc 1 66 0
 672 009a 224B     		ldr	r3, .L2+80
 673 009c FA68     		ldr	r2, [r7, #12]
 674 009e 1A60     		str	r2, [r3]
  67:C:/mop/c/Moplaborationer/DIPs-Witch/C\DIP.c **** 	sprite *pointer17 = &tempDIP3Gray;
 675              		.loc 1 67 0
 676 00a0 214B     		ldr	r3, .L2+84
 677 00a2 BB60     		str	r3, [r7, #8]
  68:C:/mop/c/Moplaborationer/DIPs-Witch/C\DIP.c **** 	load_sprite(pointer17, witch3_gray_bits, witch3_black_width, witch3_black_height);
 678              		.loc 1 68 0
 679 00a4 2149     		ldr	r1, .L2+88
 680 00a6 B868     		ldr	r0, [r7, #8]
 681 00a8 1223     		movs	r3, #18
 682 00aa 1222     		movs	r2, #18
 683 00ac FFF7FEFF 		bl	load_sprite
  69:C:/mop/c/Moplaborationer/DIPs-Witch/C\DIP.c **** 	DIP3Gray = pointer17;
 684              		.loc 1 69 0
 685 00b0 1F4B     		ldr	r3, .L2+92
 686 00b2 BA68     		ldr	r2, [r7, #8]
 687 00b4 1A60     		str	r2, [r3]
  70:C:/mop/c/Moplaborationer/DIPs-Witch/C\DIP.c **** 	sprite *pointer18 = &tempDIP3Black;
 688              		.loc 1 70 0
 689 00b6 1F4B     		ldr	r3, .L2+96
 690 00b8 7B60     		str	r3, [r7, #4]
  71:C:/mop/c/Moplaborationer/DIPs-Witch/C\DIP.c **** 	load_sprite(pointer18, witch3_black_bits, witch3_black_width, witch3_black_height);
 691              		.loc 1 71 0
 692 00ba 1F49     		ldr	r1, .L2+100
 693 00bc 7868     		ldr	r0, [r7, #4]
 694 00be 1223     		movs	r3, #18
 695 00c0 1222     		movs	r2, #18
 696 00c2 FFF7FEFF 		bl	load_sprite
  72:C:/mop/c/Moplaborationer/DIPs-Witch/C\DIP.c **** 	DIP3Black = pointer18;	
 697              		.loc 1 72 0
 698 00c6 1D4B     		ldr	r3, .L2+104
 699 00c8 7A68     		ldr	r2, [r7, #4]
 700 00ca 1A60     		str	r2, [r3]
  73:C:/mop/c/Moplaborationer/DIPs-Witch/C\DIP.c **** 	
  74:C:/mop/c/Moplaborationer/DIPs-Witch/C\DIP.c **** }
 701              		.loc 1 74 0
 702 00cc C046     		nop
 703 00ce BD46     		mov	sp, r7
 704 00d0 0AB0     		add	sp, sp, #40
 705              		@ sp needed
 706 00d2 80BD     		pop	{r7, pc}
 707              	.L3:
 708              		.align	2
 709              	.L2:
 710 00d4 00000000 		.word	tempDIPLight
 711 00d8 70000000 		.word	witch1_light_bits
 712 00dc 00000000 		.word	DIP1Light
 713 00e0 00000000 		.word	tempDIPGray
 714 00e4 38000000 		.word	witch1_gray_bits
 715 00e8 00000000 		.word	DIP1Gray
 716 00ec 00000000 		.word	tempDIPBlack
 717 00f0 00000000 		.word	witch1_black_bits
 718 00f4 00000000 		.word	DIP1Black
 719 00f8 00000000 		.word	tempDIP2Light
 720 00fc 18010000 		.word	witch2_light_bits
 721 0100 00000000 		.word	DIP2Light
 722 0104 00000000 		.word	tempDIP2Gray
 723 0108 E0000000 		.word	witch2_gray_bits
 724 010c 00000000 		.word	DIP2Gray
 725 0110 00000000 		.word	tempDIP2Black
 726 0114 A8000000 		.word	witch2_black_bits
 727 0118 00000000 		.word	DIP2Black
 728 011c 00000000 		.word	tempDIP3Light
 729 0120 C0010000 		.word	witch3_light_bits
 730 0124 00000000 		.word	DIP3Light
 731 0128 00000000 		.word	tempDIP3Gray
 732 012c 88010000 		.word	witch3_gray_bits
 733 0130 00000000 		.word	DIP3Gray
 734 0134 00000000 		.word	tempDIP3Black
 735 0138 50010000 		.word	witch3_black_bits
 736 013c 00000000 		.word	DIP3Black
 737              		.cfi_endproc
 738              	.LFE0:
 740              		.align	1
 741              		.global	init_DIP
 742              		.syntax unified
 743              		.code	16
 744              		.thumb_func
 745              		.fpu softvfp
 747              	init_DIP:
 748              	.LFB1:
  75:C:/mop/c/Moplaborationer/DIPs-Witch/C\DIP.c **** 	
  76:C:/mop/c/Moplaborationer/DIPs-Witch/C\DIP.c **** void init_DIP( GameObject *DIPObj ) {
 749              		.loc 1 76 0
 750              		.cfi_startproc
 751              		@ args = 0, pretend = 0, frame = 8
 752              		@ frame_needed = 1, uses_anonymous_args = 0
 753 0140 90B5     		push	{r4, r7, lr}
 754              		.cfi_def_cfa_offset 12
 755              		.cfi_offset 4, -12
 756              		.cfi_offset 7, -8
 757              		.cfi_offset 14, -4
 758 0142 83B0     		sub	sp, sp, #12
 759              		.cfi_def_cfa_offset 24
 760 0144 00AF     		add	r7, sp, #0
 761              		.cfi_def_cfa_register 7
 762 0146 7860     		str	r0, [r7, #4]
  77:C:/mop/c/Moplaborationer/DIPs-Witch/C\DIP.c **** 	static int firstTime = 1;
  78:C:/mop/c/Moplaborationer/DIPs-Witch/C\DIP.c **** 	if (firstTime) {
 763              		.loc 1 78 0
 764 0148 294B     		ldr	r3, .L6
 765 014a 1B68     		ldr	r3, [r3]
 766 014c 002B     		cmp	r3, #0
 767 014e 3BD0     		beq	.L5
  79:C:/mop/c/Moplaborationer/DIPs-Witch/C\DIP.c **** 		initSprites();
 768              		.loc 1 79 0
 769 0150 FFF756FF 		bl	initSprites
  80:C:/mop/c/Moplaborationer/DIPs-Witch/C\DIP.c **** 		firstTime = 0;			
 770              		.loc 1 80 0
 771 0154 264B     		ldr	r3, .L6
 772 0156 0022     		movs	r2, #0
 773 0158 1A60     		str	r2, [r3]
  81:C:/mop/c/Moplaborationer/DIPs-Witch/C\DIP.c **** 
  82:C:/mop/c/Moplaborationer/DIPs-Witch/C\DIP.c **** 		DIPImages[0] = DIP1Image;
 774              		.loc 1 82 0
 775 015a 264B     		ldr	r3, .L6+4
 776 015c 264A     		ldr	r2, .L6+8
 777 015e 13CA     		ldmia	r2!, {r0, r1, r4}
 778 0160 13C3     		stmia	r3!, {r0, r1, r4}
  83:C:/mop/c/Moplaborationer/DIPs-Witch/C\DIP.c **** 		DIPImages[1] = DIP2Image;
 779              		.loc 1 83 0
 780 0162 244B     		ldr	r3, .L6+4
 781 0164 254A     		ldr	r2, .L6+12
 782 0166 0C33     		adds	r3, r3, #12
 783 0168 13CA     		ldmia	r2!, {r0, r1, r4}
 784 016a 13C3     		stmia	r3!, {r0, r1, r4}
  84:C:/mop/c/Moplaborationer/DIPs-Witch/C\DIP.c **** 		DIPImages[2] = DIP3Image;
 785              		.loc 1 84 0
 786 016c 214B     		ldr	r3, .L6+4
 787 016e 244A     		ldr	r2, .L6+16
 788 0170 1833     		adds	r3, r3, #24
 789 0172 13CA     		ldmia	r2!, {r0, r1, r4}
 790 0174 13C3     		stmia	r3!, {r0, r1, r4}
  85:C:/mop/c/Moplaborationer/DIPs-Witch/C\DIP.c **** 		DIPImages[3] = DIP4Image;
 791              		.loc 1 85 0
 792 0176 1F4B     		ldr	r3, .L6+4
 793 0178 224A     		ldr	r2, .L6+20
 794 017a 2433     		adds	r3, r3, #36
 795 017c 13CA     		ldmia	r2!, {r0, r1, r4}
 796 017e 13C3     		stmia	r3!, {r0, r1, r4}
  86:C:/mop/c/Moplaborationer/DIPs-Witch/C\DIP.c **** 		
  87:C:/mop/c/Moplaborationer/DIPs-Witch/C\DIP.c **** 		
  88:C:/mop/c/Moplaborationer/DIPs-Witch/C\DIP.c **** 		load_image(&DIPImages[0], DIP1Black, DIP1Light, DIP1Gray);
 797              		.loc 1 88 0
 798 0180 214B     		ldr	r3, .L6+24
 799 0182 1968     		ldr	r1, [r3]
 800 0184 214B     		ldr	r3, .L6+28
 801 0186 1A68     		ldr	r2, [r3]
 802 0188 214B     		ldr	r3, .L6+32
 803 018a 1B68     		ldr	r3, [r3]
 804 018c 1948     		ldr	r0, .L6+4
 805 018e FFF7FEFF 		bl	load_image
  89:C:/mop/c/Moplaborationer/DIPs-Witch/C\DIP.c **** 		load_image(&DIPImages[1], DIP2Black, DIP2Light, DIP2Gray);
 806              		.loc 1 89 0
 807 0192 204B     		ldr	r3, .L6+36
 808 0194 1968     		ldr	r1, [r3]
 809 0196 204B     		ldr	r3, .L6+40
 810 0198 1A68     		ldr	r2, [r3]
 811 019a 204B     		ldr	r3, .L6+44
 812 019c 1B68     		ldr	r3, [r3]
 813 019e 2048     		ldr	r0, .L6+48
 814 01a0 FFF7FEFF 		bl	load_image
  90:C:/mop/c/Moplaborationer/DIPs-Witch/C\DIP.c **** 		load_image(&DIPImages[2], DIP3Black, DIP3Light, DIP3Gray);
 815              		.loc 1 90 0
 816 01a4 1F4B     		ldr	r3, .L6+52
 817 01a6 1968     		ldr	r1, [r3]
 818 01a8 1F4B     		ldr	r3, .L6+56
 819 01aa 1A68     		ldr	r2, [r3]
 820 01ac 1F4B     		ldr	r3, .L6+60
 821 01ae 1B68     		ldr	r3, [r3]
 822 01b0 1F48     		ldr	r0, .L6+64
 823 01b2 FFF7FEFF 		bl	load_image
  91:C:/mop/c/Moplaborationer/DIPs-Witch/C\DIP.c **** 		load_image(&DIPImages[3], DIP2Black, DIP2Light, DIP2Gray);
 824              		.loc 1 91 0
 825 01b6 174B     		ldr	r3, .L6+36
 826 01b8 1968     		ldr	r1, [r3]
 827 01ba 174B     		ldr	r3, .L6+40
 828 01bc 1A68     		ldr	r2, [r3]
 829 01be 174B     		ldr	r3, .L6+44
 830 01c0 1B68     		ldr	r3, [r3]
 831 01c2 1C48     		ldr	r0, .L6+68
 832 01c4 FFF7FEFF 		bl	load_image
 833              	.L5:
  92:C:/mop/c/Moplaborationer/DIPs-Witch/C\DIP.c **** 		
  93:C:/mop/c/Moplaborationer/DIPs-Witch/C\DIP.c **** 	}
  94:C:/mop/c/Moplaborationer/DIPs-Witch/C\DIP.c **** 	
  95:C:/mop/c/Moplaborationer/DIPs-Witch/C\DIP.c **** 	DIPObj->images = DIPImages;
 834              		.loc 1 95 0
 835 01c8 7B68     		ldr	r3, [r7, #4]
 836 01ca 0A4A     		ldr	r2, .L6+4
 837 01cc 1A60     		str	r2, [r3]
  96:C:/mop/c/Moplaborationer/DIPs-Witch/C\DIP.c **** 
  97:C:/mop/c/Moplaborationer/DIPs-Witch/C\DIP.c **** 	DIPObj->current_frame = 0;
 838              		.loc 1 97 0
 839 01ce 7B68     		ldr	r3, [r7, #4]
 840 01d0 0022     		movs	r2, #0
 841 01d2 5A61     		str	r2, [r3, #20]
  98:C:/mop/c/Moplaborationer/DIPs-Witch/C\DIP.c **** 	DIPObj->n_frames = 4;
 842              		.loc 1 98 0
 843 01d4 7B68     		ldr	r3, [r7, #4]
 844 01d6 0422     		movs	r2, #4
 845 01d8 9A61     		str	r2, [r3, #24]
  99:C:/mop/c/Moplaborationer/DIPs-Witch/C\DIP.c **** 	DIPObj->animation_speed = 1;
 846              		.loc 1 99 0
 847 01da 7B68     		ldr	r3, [r7, #4]
 848 01dc 0122     		movs	r2, #1
 849 01de DA61     		str	r2, [r3, #28]
 100:C:/mop/c/Moplaborationer/DIPs-Witch/C\DIP.c **** 	DIPObj->animation_counter = 0;
 850              		.loc 1 100 0
 851 01e0 7B68     		ldr	r3, [r7, #4]
 852 01e2 0022     		movs	r2, #0
 853 01e4 1A62     		str	r2, [r3, #32]
 101:C:/mop/c/Moplaborationer/DIPs-Witch/C\DIP.c **** }
 854              		.loc 1 101 0
 855 01e6 C046     		nop
 856 01e8 BD46     		mov	sp, r7
 857 01ea 03B0     		add	sp, sp, #12
 858              		@ sp needed
 859 01ec 90BD     		pop	{r4, r7, pc}
 860              	.L7:
 861 01ee C046     		.align	2
 862              	.L6:
 863 01f0 F8010000 		.word	firstTime.4067
 864 01f4 00000000 		.word	DIPImages
 865 01f8 00000000 		.word	DIP1Image
 866 01fc 00000000 		.word	DIP2Image
 867 0200 00000000 		.word	DIP3Image
 868 0204 00000000 		.word	DIP4Image
 869 0208 00000000 		.word	DIP1Black
 870 020c 00000000 		.word	DIP1Light
 871 0210 00000000 		.word	DIP1Gray
 872 0214 00000000 		.word	DIP2Black
 873 0218 00000000 		.word	DIP2Light
 874 021c 00000000 		.word	DIP2Gray
 875 0220 0C000000 		.word	DIPImages+12
 876 0224 00000000 		.word	DIP3Black
 877 0228 00000000 		.word	DIP3Light
 878 022c 00000000 		.word	DIP3Gray
 879 0230 18000000 		.word	DIPImages+24
 880 0234 24000000 		.word	DIPImages+36
 881              		.cfi_endproc
 882              	.LFE1:
 884              		.align	1
 885              		.global	DIPUpdate
 886              		.syntax unified
 887              		.code	16
 888              		.thumb_func
 889              		.fpu softvfp
 891              	DIPUpdate:
 892              	.LFB2:
 102:C:/mop/c/Moplaborationer/DIPs-Witch/C\DIP.c **** 
 103:C:/mop/c/Moplaborationer/DIPs-Witch/C\DIP.c **** void DIPUpdate(GameObject *this) {
 893              		.loc 1 103 0
 894              		.cfi_startproc
 895              		@ args = 0, pretend = 0, frame = 8
 896              		@ frame_needed = 1, uses_anonymous_args = 0
 897 0238 80B5     		push	{r7, lr}
 898              		.cfi_def_cfa_offset 8
 899              		.cfi_offset 7, -8
 900              		.cfi_offset 14, -4
 901 023a 82B0     		sub	sp, sp, #8
 902              		.cfi_def_cfa_offset 16
 903 023c 00AF     		add	r7, sp, #0
 904              		.cfi_def_cfa_register 7
 905 023e 7860     		str	r0, [r7, #4]
 104:C:/mop/c/Moplaborationer/DIPs-Witch/C\DIP.c **** 	gameObjectUpdate(this);
 906              		.loc 1 104 0
 907 0240 7B68     		ldr	r3, [r7, #4]
 908 0242 1800     		movs	r0, r3
 909 0244 FFF7FEFF 		bl	gameObjectUpdate
 105:C:/mop/c/Moplaborationer/DIPs-Witch/C\DIP.c **** 	static int counter = 0;
 106:C:/mop/c/Moplaborationer/DIPs-Witch/C\DIP.c **** 	static int direction = -1;
 107:C:/mop/c/Moplaborationer/DIPs-Witch/C\DIP.c **** 	counter++;
 910              		.loc 1 107 0
 911 0248 154B     		ldr	r3, .L13
 912 024a 1B68     		ldr	r3, [r3]
 913 024c 5A1C     		adds	r2, r3, #1
 914 024e 144B     		ldr	r3, .L13
 915 0250 1A60     		str	r2, [r3]
 108:C:/mop/c/Moplaborationer/DIPs-Witch/C\DIP.c **** 	this->xPos += (counter % 2)*direction;
 916              		.loc 1 108 0
 917 0252 7B68     		ldr	r3, [r7, #4]
 918 0254 5A68     		ldr	r2, [r3, #4]
 919 0256 124B     		ldr	r3, .L13
 920 0258 1B68     		ldr	r3, [r3]
 921 025a 1249     		ldr	r1, .L13+4
 922 025c 0B40     		ands	r3, r1
 923 025e 04D5     		bpl	.L9
 924 0260 013B     		subs	r3, r3, #1
 925 0262 0221     		movs	r1, #2
 926 0264 4942     		rsbs	r1, r1, #0
 927 0266 0B43     		orrs	r3, r1
 928 0268 0133     		adds	r3, r3, #1
 929              	.L9:
 930 026a 1900     		movs	r1, r3
 931 026c 0E4B     		ldr	r3, .L13+8
 932 026e 1B68     		ldr	r3, [r3]
 933 0270 4B43     		muls	r3, r1
 934 0272 D218     		adds	r2, r2, r3
 935 0274 7B68     		ldr	r3, [r7, #4]
 936 0276 5A60     		str	r2, [r3, #4]
 109:C:/mop/c/Moplaborationer/DIPs-Witch/C\DIP.c **** 	
 110:C:/mop/c/Moplaborationer/DIPs-Witch/C\DIP.c **** 	if(this->xPos > 115) {
 937              		.loc 1 110 0
 938 0278 7B68     		ldr	r3, [r7, #4]
 939 027a 5B68     		ldr	r3, [r3, #4]
 940 027c 732B     		cmp	r3, #115
 941 027e 04DD     		ble	.L10
 111:C:/mop/c/Moplaborationer/DIPs-Witch/C\DIP.c **** 		direction = -1;
 942              		.loc 1 111 0
 943 0280 094B     		ldr	r3, .L13+8
 944 0282 0122     		movs	r2, #1
 945 0284 5242     		rsbs	r2, r2, #0
 946 0286 1A60     		str	r2, [r3]
 112:C:/mop/c/Moplaborationer/DIPs-Witch/C\DIP.c **** 	} else if(this->xPos < 30) {
 113:C:/mop/c/Moplaborationer/DIPs-Witch/C\DIP.c **** 		direction = 1;
 114:C:/mop/c/Moplaborationer/DIPs-Witch/C\DIP.c **** 	}
 115:C:/mop/c/Moplaborationer/DIPs-Witch/C\DIP.c **** }
 947              		.loc 1 115 0
 948 0288 06E0     		b	.L12
 949              	.L10:
 112:C:/mop/c/Moplaborationer/DIPs-Witch/C\DIP.c **** 	} else if(this->xPos < 30) {
 950              		.loc 1 112 0
 951 028a 7B68     		ldr	r3, [r7, #4]
 952 028c 5B68     		ldr	r3, [r3, #4]
 953 028e 1D2B     		cmp	r3, #29
 954 0290 02DC     		bgt	.L12
 113:C:/mop/c/Moplaborationer/DIPs-Witch/C\DIP.c **** 	}
 955              		.loc 1 113 0
 956 0292 054B     		ldr	r3, .L13+8
 957 0294 0122     		movs	r2, #1
 958 0296 1A60     		str	r2, [r3]
 959              	.L12:
 960              		.loc 1 115 0
 961 0298 C046     		nop
 962 029a BD46     		mov	sp, r7
 963 029c 02B0     		add	sp, sp, #8
 964              		@ sp needed
 965 029e 80BD     		pop	{r7, pc}
 966              	.L14:
 967              		.align	2
 968              	.L13:
 969 02a0 00000000 		.word	counter.4071
 970 02a4 01000080 		.word	-2147483647
 971 02a8 FC010000 		.word	direction.4072
 972              		.cfi_endproc
 973              	.LFE2:
 975              		.data
 976 01f6 0000     		.align	2
 979              	firstTime.4067:
 980 01f8 01000000 		.word	1
 981              		.bss
 982              		.align	2
 983              	counter.4071:
 984 0000 00000000 		.space	4
 986              		.data
 987              		.align	2
 990              	direction.4072:
 991 01fc FFFFFFFF 		.word	-1
 992              		.text
 993              	.Letext0:
 994              		.file 2 "C:/mop/c/Moplaborationer/DIPs-Witch/C/sprite.h"
 995              		.file 3 "C:/mop/c/Moplaborationer/DIPs-Witch/C/image.h"
 996              		.file 4 "C:/mop/c/Moplaborationer/DIPs-Witch/C/gameobject.h"
 997              		.file 5 "C:/mop/c/Moplaborationer/DIPs-Witch/C/witch1_black.xbm"
 998              		.file 6 "C:/mop/c/Moplaborationer/DIPs-Witch/C/witch1_gray.xbm"
 999              		.file 7 "C:/mop/c/Moplaborationer/DIPs-Witch/C/witch1_light.xbm"
 1000              		.file 8 "C:/mop/c/Moplaborationer/DIPs-Witch/C/witch2_black.xbm"
 1001              		.file 9 "C:/mop/c/Moplaborationer/DIPs-Witch/C/witch2_gray.xbm"
 1002              		.file 10 "C:/mop/c/Moplaborationer/DIPs-Witch/C/witch2_light.xbm"
 1003              		.file 11 "C:/mop/c/Moplaborationer/DIPs-Witch/C/witch3_black.xbm"
 1004              		.file 12 "C:/mop/c/Moplaborationer/DIPs-Witch/C/witch3_gray.xbm"
 1005              		.file 13 "C:/mop/c/Moplaborationer/DIPs-Witch/C/witch3_light.xbm"
